target datalayout = "e-m:e-p270:32:32-p271:32:32-p272:64:64-i64:64-i128:128-f80:128-n8:16:32:64-S128"
target triple = "x86_64-pc-linux-gnu"

%struct.mq = type { ptr, i32, i32, ptr, ptr, i64, ptr, i64, ptr, i64, ptr, i8, ptr, ptr, [10 x %struct.mq_item] }
%struct.mq_item = type { i32, i64, i64 }
%struct.LimExNFA256 = type { [256 x i8], i32, i32, i32, i32, i32, i32, i32, i32, i32, i32, i32, i32, i32, i32, i32, i32, i32, i32, i32, <4 x i64>, <4 x i64>, <4 x i64>, <4 x i64>, <4 x i64>, <4 x i64>, <4 x i64>, <4 x i64>, <4 x i64>, <4 x i64>, <4 x i64>, <4 x i64>, [8 x <4 x i64>], i32, [8 x i8], %struct.m512, %struct.m512, %struct.m512 }
%struct.m512 = type { <4 x i64>, <4 x i64> }

; Function Attrs: alwaysinline nounwind uwtable
define internal i32 @_mm256_movemask_epi8(<4 x i64> noundef %0) #3 {
  %2 = alloca <4 x i64>, align 32
  store <4 x i64> %0, ptr %2, align 32
  %3 = load <4 x i64>, ptr %2, align 32
  %4 = bitcast <4 x i64> %3 to <32 x i8>
  %5 = call i32 @llvm.x86.avx2.pmovmskb(<32 x i8> %4)
  ret i32 %5
}

; Function Attrs: alwaysinline nounwind uwtable
define internal <4 x i64> @_mm256_cmpeq_epi8(<4 x i64> noundef %0, <4 x i64> noundef %1) #3 {
  %3 = alloca <4 x i64>, align 32
  %4 = alloca <4 x i64>, align 32
  store <4 x i64> %0, ptr %3, align 32
  store <4 x i64> %1, ptr %4, align 32
  %5 = load <4 x i64>, ptr %3, align 32
  %6 = bitcast <4 x i64> %5 to <32 x i8>
  %7 = load <4 x i64>, ptr %4, align 32
  %8 = bitcast <4 x i64> %7 to <32 x i8>
  %9 = icmp eq <32 x i8> %6, %8
  %10 = sext <32 x i1> %9 to <32 x i8>
  %11 = bitcast <32 x i8> %10 to <4 x i64>
  ret <4 x i64> %11
}

; Function Attrs: alwaysinline nounwind uwtable
define internal <4 x i64> @_mm256_setzero_si256() #3 {
  %1 = alloca <4 x i64>, align 32
  store <4 x i64> zeroinitializer, ptr %1, align 32
  %2 = load <4 x i64>, ptr %1, align 32
  ret <4 x i64> %2
}

; Function Attrs: alwaysinline nounwind uwtable
define internal i32 @diff256(<4 x i64> noundef %0, <4 x i64> noundef %1) #3 {
  %3 = alloca <4 x i64>, align 32
  %4 = alloca <4 x i64>, align 32
  store <4 x i64> %0, ptr %3, align 32
  store <4 x i64> %1, ptr %4, align 32
  %5 = load <4 x i64>, ptr %3, align 32
  %6 = load <4 x i64>, ptr %4, align 32
  %7 = call <4 x i64> @_mm256_cmpeq_epi8(<4 x i64> noundef %5, <4 x i64> noundef %6)
  %8 = call i32 @_mm256_movemask_epi8(<4 x i64> noundef %7)
  %9 = xor i32 %8, -1
  %10 = icmp ne i32 %9, 0
  %11 = xor i1 %10, true
  %12 = xor i1 %11, true
  %13 = zext i1 %12 to i32
  ret i32 %13
}

; Function Attrs: alwaysinline nounwind uwtable
define internal <4 x i64> @zeroes256() #3 {
  %1 = call <4 x i64> @_mm256_setzero_si256()
  ret <4 x i64> %1
}

; Function Attrs: alwaysinline nounwind uwtable
define internal <4 x i64> @_mm256_and_si256(<4 x i64> noundef %0, <4 x i64> noundef %1) #3 {
  %3 = alloca <4 x i64>, align 32
  %4 = alloca <4 x i64>, align 32
  store <4 x i64> %0, ptr %3, align 32
  store <4 x i64> %1, ptr %4, align 32
  %5 = load <4 x i64>, ptr %3, align 32
  %6 = load <4 x i64>, ptr %4, align 32
  %7 = and <4 x i64> %5, %6
  ret <4 x i64> %7
}

; Function Attrs: alwaysinline nounwind uwtable
define internal <4 x i64> @_mm256_load_si256(ptr noundef %0) #3 {
  %2 = alloca ptr, align 8
  store ptr %0, ptr %2, align 8
  %3 = load ptr, ptr %2, align 8
  %4 = load <4 x i64>, ptr %3, align 32
  ret <4 x i64> %4
}

; Function Attrs: alwaysinline nounwind uwtable
define internal i64 @q_cur_offset(ptr noundef %0) #2 {
  %2 = alloca ptr, align 8
  store ptr %0, ptr %2, align 8
  %3 = load ptr, ptr %2, align 8
  %4 = getelementptr inbounds nuw %struct.mq, ptr %3, i32 0, i32 5
  %5 = load i64, ptr %4, align 8
  %6 = load ptr, ptr %2, align 8
  %7 = getelementptr inbounds nuw %struct.mq, ptr %6, i32 0, i32 14
  %8 = load ptr, ptr %2, align 8
  %9 = getelementptr inbounds nuw %struct.mq, ptr %8, i32 0, i32 1
  %10 = load i32, ptr %9, align 8
  %11 = zext i32 %10 to i64
  %12 = getelementptr inbounds nuw [10 x %struct.mq_item], ptr %7, i64 0, i64 %11
  %13 = getelementptr inbounds nuw %struct.mq_item, ptr %12, i32 0, i32 1
  %14 = load i64, ptr %13, align 8
  %15 = add i64 %5, %14
  ret i64 %15
}

; Function Attrs: alwaysinline nounwind uwtable
define internal i32 @isnonzero256(<4 x i64> noundef %0) #3 {
  %2 = alloca <4 x i64>, align 32
  store <4 x i64> %0, ptr %2, align 32
  %3 = load <4 x i64>, ptr %2, align 32
  %4 = call <4 x i64> @zeroes256()
  %5 = call i32 @diff256(<4 x i64> noundef %3, <4 x i64> noundef %4)
  %6 = icmp ne i32 %5, 0
  %7 = xor i1 %6, true
  %8 = xor i1 %7, true
  %9 = zext i1 %8 to i32
  ret i32 %9
}

; Function Attrs: alwaysinline nounwind uwtable
define internal <4 x i64> @and256(<4 x i64> noundef %0, <4 x i64> noundef %1) #3 {
  %3 = alloca <4 x i64>, align 32
  %4 = alloca <4 x i64>, align 32
  store <4 x i64> %0, ptr %3, align 32
  store <4 x i64> %1, ptr %4, align 32
  %5 = load <4 x i64>, ptr %3, align 32
  %6 = load <4 x i64>, ptr %4, align 32
  %7 = call <4 x i64> @_mm256_and_si256(<4 x i64> noundef %5, <4 x i64> noundef %6)
  ret <4 x i64> %7
}

; Function Attrs: alwaysinline nounwind uwtable
define internal <4 x i64> @load256(ptr noundef %0) #3 {
  %2 = alloca ptr, align 8
  store ptr %0, ptr %2, align 8
  %3 = load ptr, ptr %2, align 8
  %4 = call <4 x i64> @_mm256_load_si256(ptr noundef %3)
  ret <4 x i64> %4
}

; Function Attrs: alwaysinline nounwind uwtable
define internal signext i8 @moNfaReportCurrent256(ptr noundef %0, ptr noundef %1) #3 {
  %3 = alloca i8, align 1
  %4 = alloca ptr, align 8
  %5 = alloca ptr, align 8
  %6 = alloca <4 x i64>, align 32
  %7 = alloca <4 x i64>, align 32
  %8 = alloca <4 x i64>, align 32
  %9 = alloca ptr, align 8
  %10 = alloca i64, align 8
  %11 = alloca i32, align 4
  store ptr %0, ptr %4, align 8
  store ptr %1, ptr %5, align 8
  call void @llvm.lifetime.start.p0(i64 32, ptr %6) #14
  %12 = load ptr, ptr %5, align 8
  %13 = getelementptr inbounds nuw %struct.mq, ptr %12, i32 0, i32 3
  %14 = load ptr, ptr %13, align 8
  %15 = load <4 x i64>, ptr %14, align 32
  store <4 x i64> %15, ptr %6, align 32
  call void @llvm.lifetime.start.p0(i64 32, ptr %7) #14
  %16 = load ptr, ptr %4, align 8
  %17 = getelementptr inbounds nuw %struct.LimExNFA256, ptr %16, i32 0, i32 22
  %18 = call <4 x i64> @load256(ptr noundef %17)
  store <4 x i64> %18, ptr %7, align 32
  call void @llvm.lifetime.start.p0(i64 32, ptr %8) #14
  %19 = load <4 x i64>, ptr %6, align 32
  %20 = load <4 x i64>, ptr %7, align 32
  %21 = call <4 x i64> @and256(<4 x i64> noundef %19, <4 x i64> noundef %20)
  store <4 x i64> %21, ptr %8, align 32
  %22 = load <4 x i64>, ptr %8, align 32
  %23 = call i32 @isnonzero256(<4 x i64> noundef %22)
  %24 = icmp ne i32 %23, 0
  %25 = xor i1 %24, true
  %26 = xor i1 %25, true
  %27 = zext i1 %26 to i32
  %28 = sext i32 %27 to i64
  %29 = call i64 @llvm.expect.i64(i64 %28, i64 0)
  %30 = icmp ne i64 %29, 0
  br i1 %30, label %31, label %62

31:                                               ; preds = %2
  br label %32

32:                                               ; preds = %31
  br label %33

33:                                               ; preds = %32
  br label %34

34:                                               ; preds = %33
  br label %35

35:                                               ; preds = %34
  br label %36

36:                                               ; preds = %35
  br label %37

37:                                               ; preds = %36
  call void @llvm.lifetime.start.p0(i64 8, ptr %9) #14
  %38 = load ptr, ptr %4, align 8
  %39 = load ptr, ptr %4, align 8
  %40 = getelementptr inbounds nuw %struct.LimExNFA256, ptr %39, i32 0, i32 7
  %41 = load i32, ptr %40, align 8
  %42 = zext i32 %41 to i64
  %43 = getelementptr inbounds nuw i8, ptr %38, i64 %42
  store ptr %43, ptr %9, align 8
  call void @llvm.lifetime.start.p0(i64 8, ptr %10) #14
  %44 = load ptr, ptr %5, align 8
  %45 = call i64 @q_cur_offset(ptr noundef %44)
  store i64 %45, ptr %10, align 8
  %46 = load ptr, ptr %4, align 8
  %47 = load ptr, ptr %9, align 8
  %48 = load i64, ptr %10, align 8
  %49 = load ptr, ptr %5, align 8
  %50 = getelementptr inbounds nuw %struct.mq, ptr %49, i32 0, i32 12
  %51 = load ptr, ptr %50, align 8
  %52 = load ptr, ptr %5, align 8
  %53 = getelementptr inbounds nuw %struct.mq, ptr %52, i32 0, i32 13
  %54 = load ptr, ptr %53, align 8
  %55 = call signext i8 @moProcessAcceptsNoSquash256(ptr noundef %46, ptr noundef %8, ptr noundef %7, ptr noundef %47, i64 noundef %48, ptr noundef %51, ptr noundef %54)
  %56 = icmp ne i8 %55, 0
  br i1 %56, label %57, label %58

57:                                               ; preds = %37
  store i8 0, ptr %3, align 1
  store i32 1, ptr %11, align 4
  br label %59

58:                                               ; preds = %37
  store i32 0, ptr %11, align 4
  br label %59

59:                                               ; preds = %58, %57
  call void @llvm.lifetime.end.p0(i64 8, ptr %10) #14
  call void @llvm.lifetime.end.p0(i64 8, ptr %9) #14
  %60 = load i32, ptr %11, align 4
  switch i32 %60, label %63 [
    i32 0, label %61
  ]

61:                                               ; preds = %59
  br label %62

62:                                               ; preds = %61, %2
  store i8 1, ptr %3, align 1
  store i32 1, ptr %11, align 4
  br label %63

63:                                               ; preds = %62, %59
  call void @llvm.lifetime.end.p0(i64 32, ptr %8) #14
  call void @llvm.lifetime.end.p0(i64 32, ptr %7) #14
  call void @llvm.lifetime.end.p0(i64 32, ptr %6) #14
  %64 = load i8, ptr %3, align 1
  ret i8 %64
}

; Function Attrs: nounwind uwtable
define hidden signext i8 @nfaExecLimEx256_reportCurrent(ptr noundef %0, ptr noundef %1) #0 {
  %3 = alloca ptr, align 8
  %4 = alloca ptr, align 8
  %5 = alloca ptr, align 8
  store ptr %0, ptr %3, align 8
  store ptr %1, ptr %4, align 8
  call void @llvm.lifetime.start.p0(i64 8, ptr %5) #14
  %6 = load ptr, ptr %3, align 8
  %7 = getelementptr inbounds nuw i8, ptr %6, i64 64
  store ptr %7, ptr %5, align 8
  %8 = load ptr, ptr %5, align 8
  %9 = load ptr, ptr %4, align 8
  %10 = call signext i8 @moNfaReportCurrent256(ptr noundef %8, ptr noundef %9)
  call void @llvm.lifetime.end.p0(i64 8, ptr %5) #14
  ret i8 1
}